target datalayout = "e-m:e-p270:32:32-p271:32:32-p272:64:64-i64:64-i128:128-f80:128-n8:16:32:64-S128"
target triple = "x86_64-pc-linux-gnu"

%struct._address = type { i32, i32, ptr, ptr }
%struct.lbttcp_transport_conv_data_t = type { ptr, ptr }
%struct.lbttcp_transport_t = type { %struct._address, i16, i32, i64, i32, ptr }

@lbttcp_null_address = internal constant %struct._address zeroinitializer, align 8
@proto_lbttcp = internal global i32 0, align 4

; Function Attrs: null_pointer_is_valid sspstrong uwtable
define hidden zeroext i1 @lbttcp_transport_sid_find(ptr noundef %0, i16 noundef zeroext %1, i32 noundef %2, ptr noundef %3) #0 {
  %5 = alloca i1, align 1
  %6 = alloca ptr, align 8
  %7 = alloca i16, align 2
  %8 = alloca i32, align 4
  %9 = alloca ptr, align 8
  %10 = alloca ptr, align 8
  %11 = alloca ptr, align 8
  %12 = alloca ptr, align 8
  %13 = alloca i32, align 4
  store ptr %0, ptr %6, align 8
  store i16 %1, ptr %7, align 2
  store i32 %2, ptr %8, align 4
  store ptr %3, ptr %9, align 8
  call void @llvm.lifetime.start.p0(i64 8, ptr %10) #9
  store ptr null, ptr %10, align 8
  call void @llvm.lifetime.start.p0(i64 8, ptr %11) #9
  store ptr null, ptr %11, align 8
  call void @llvm.lifetime.start.p0(i64 8, ptr %12) #9
  store ptr null, ptr %12, align 8
  %14 = load i32, ptr %8, align 4
  %15 = load ptr, ptr %6, align 8
  %16 = load i16, ptr %7, align 2
  %17 = zext i16 %16 to i32
  %18 = call ptr @find_conversation(i32 noundef %14, ptr noundef %15, ptr noundef @lbttcp_null_address, i32 noundef 2, i32 noundef %17, i32 noundef 0, i32 noundef 0)
  store ptr %18, ptr %10, align 8
  %19 = load ptr, ptr %10, align 8
  %20 = icmp eq ptr %19, null
  br i1 %20, label %21, label %22

21:                                               ; preds = %4
  store i1 false, ptr %5, align 1
  store i32 1, ptr %13, align 4
  br label %49

22:                                               ; preds = %4
  %23 = load ptr, ptr %10, align 8
  %24 = load i32, ptr @proto_lbttcp, align 4
  %25 = call ptr @conversation_get_proto_data(ptr noundef %23, i32 noundef %24)
  store ptr %25, ptr %11, align 8
  %26 = load ptr, ptr %11, align 8
  %27 = icmp eq ptr %26, null
  br i1 %27, label %28, label %29

28:                                               ; preds = %22
  store i1 false, ptr %5, align 1
  store i32 1, ptr %13, align 4
  br label %49

29:                                               ; preds = %22
  %30 = load ptr, ptr %11, align 8
  %31 = getelementptr inbounds nuw %struct.lbttcp_transport_conv_data_t, ptr %30, i32 0, i32 0
  %32 = load ptr, ptr %31, align 8
  %33 = icmp eq ptr %32, null
  br i1 %33, label %34, label %35

34:                                               ; preds = %29
  store i1 false, ptr %5, align 1
  store i32 1, ptr %13, align 4
  br label %49

35:                                               ; preds = %29
  %36 = load ptr, ptr %11, align 8
  %37 = getelementptr inbounds nuw %struct.lbttcp_transport_conv_data_t, ptr %36, i32 0, i32 0
  %38 = load ptr, ptr %37, align 8
  %39 = load i32, ptr %8, align 4
  %40 = call ptr @wmem_tree_lookup32_le(ptr noundef %38, i32 noundef %39)
  store ptr %40, ptr %12, align 8
  %41 = load ptr, ptr %12, align 8
  %42 = icmp eq ptr %41, null
  br i1 %42, label %43, label %44

43:                                               ; preds = %35
  store i1 false, ptr %5, align 1
  store i32 1, ptr %13, align 4
  br label %49

44:                                               ; preds = %35
  %45 = load ptr, ptr %12, align 8
  %46 = getelementptr inbounds nuw %struct.lbttcp_transport_t, ptr %45, i32 0, i32 2
  %47 = load i32, ptr %46, align 4
  %48 = load ptr, ptr %9, align 8
  store i32 %47, ptr %48, align 4
  store i1 true, ptr %5, align 1
  store i32 1, ptr %13, align 4
  br label %49

49:                                               ; preds = %44, %43, %34, %28, %21
  call void @llvm.lifetime.end.p0(i64 8, ptr %12) #9
  call void @llvm.lifetime.end.p0(i64 8, ptr %11) #9
  call void @llvm.lifetime.end.p0(i64 8, ptr %10) #9
  %50 = load i1, ptr %5, align 1
  ret i1 %50
}