; Function Attrs: null_pointer_is_valid sspstrong uwtable
define hidden noundef zeroext i1 @lbttcp_transport_sid_find(ptr noundef %0, i16 noundef zeroext %1, i32 noundef %2, ptr noundef writeonly captures(none) %3) local_unnamed_addr #0 {
  %5 = zext i16 %1 to i32
  %6 = tail call ptr @find_conversation(i32 noundef %2, ptr noundef %0, ptr noundef nonnull @lbttcp_null_address, i32 noundef 2, i32 noundef %5, i32 noundef 0, i32 noundef 0)
  %7 = icmp eq ptr %6, null
  br i1 %7, label %21, label %8

8:                                                ; preds = %4
  %9 = load i32, ptr @proto_lbttcp, align 4
  %10 = tail call ptr @conversation_get_proto_data(ptr noundef nonnull %6, i32 noundef %9)
  %11 = icmp eq ptr %10, null
  br i1 %11, label %21, label %12

12:                                               ; preds = %8
  %13 = load ptr, ptr %10, align 8
  %14 = icmp eq ptr %13, null
  br i1 %14, label %21, label %15

15:                                               ; preds = %12
  %16 = tail call ptr @wmem_tree_lookup32_le(ptr noundef nonnull %13, i32 noundef %2)
  %17 = icmp eq ptr %16, null
  br i1 %17, label %21, label %18

18:                                               ; preds = %15
  %19 = getelementptr inbounds nuw i8, ptr %16, i64 28
  %20 = load i32, ptr %19, align 4
  store i32 %20, ptr %3, align 4
  br label %21

21:                                               ; preds = %15, %12, %8, %4, %18
  %.0 = phi i1 [ true, %18 ], [ false, %4 ], [ false, %8 ], [ false, %12 ], [ false, %15 ]
  ret i1 %.0
}